target datalayout = "e-m:e-p270:32:32-p271:32:32-p272:64:64-i64:64-i128:128-f80:128-n8:16:32:64-S128"
target triple = "x86_64-pc-linux-gnu"

%struct.buf_mem_st = type { i64, ptr, i64, i64 }

@testctx = internal global ptr null, align 8
@testpropq = internal global ptr null, align 8
@.str.298 = private unnamed_addr constant [2 x i8] c"0\00", align 1
@.str.301 = private unnamed_addr constant [31 x i8] c"mem_ser = BIO_new(BIO_s_mem())\00", align 1
@.str.303 = private unnamed_addr constant [39 x i8] c"BIO_get_mem_ptr(mem_ser, &mem_buf) > 0\00", align 1
@.str.304 = private unnamed_addr constant [25 x i8] c"*encoded = mem_buf->data\00", align 1
@.str.305 = private unnamed_addr constant [31 x i8] c"*encoded_len = mem_buf->length\00", align 1
@.str.342 = private unnamed_addr constant [64 x i8] c"ossl_assert((selection & OSSL_KEYMGMT_SELECT_PRIVATE_KEY) != 0)\00", align 1
@.str.343 = private unnamed_addr constant [78 x i8] c"i2b_PVK_bio_ex(mem_ser, pkey, enc, pass_pw, (void *)pass, testctx, testpropq)\00", align 1

; Function Attrs: nounwind uwtable
define internal i32 @encode_EVP_PKEY_PVK(ptr noundef %0, i32 noundef %1, ptr noundef %2, ptr noundef %3, ptr noundef %4, i32 noundef %5, ptr noundef %6, ptr noundef %7, ptr noundef %8, ptr noundef %9) #0 {
  %11 = alloca ptr, align 8
  %12 = alloca i32, align 4
  %13 = alloca ptr, align 8
  %14 = alloca ptr, align 8
  %15 = alloca ptr, align 8
  %16 = alloca i32, align 4
  %17 = alloca ptr, align 8
  %18 = alloca ptr, align 8
  %19 = alloca ptr, align 8
  %20 = alloca ptr, align 8
  %21 = alloca ptr, align 8
  %22 = alloca ptr, align 8
  %23 = alloca ptr, align 8
  %24 = alloca i32, align 4
  %25 = alloca i32, align 4
  store ptr %0, ptr %11, align 8, !tbaa !4
  store i32 %1, ptr %12, align 4, !tbaa !9
  store ptr %2, ptr %13, align 8, !tbaa !31
  store ptr %3, ptr %14, align 8, !tbaa !32
  store ptr %4, ptr %15, align 8, !tbaa !31
  store i32 %5, ptr %16, align 4, !tbaa !9
  store ptr %6, ptr %17, align 8, !tbaa !4
  store ptr %7, ptr %18, align 8, !tbaa !4
  store ptr %8, ptr %19, align 8, !tbaa !4
  store ptr %9, ptr %20, align 8, !tbaa !4
  call void @llvm.lifetime.start.p0(i64 8, ptr %21) #7
  %26 = load ptr, ptr %15, align 8, !tbaa !31
  store ptr %26, ptr %21, align 8, !tbaa !23
  call void @llvm.lifetime.start.p0(i64 8, ptr %22) #7
  store ptr null, ptr %22, align 8, !tbaa !36
  call void @llvm.lifetime.start.p0(i64 8, ptr %23) #7
  store ptr null, ptr %23, align 8, !tbaa !38
  call void @llvm.lifetime.start.p0(i64 4, ptr %24) #7
  %27 = load ptr, ptr %19, align 8, !tbaa !4
  %28 = icmp ne ptr %27, null
  %29 = zext i1 %28 to i32
  store i32 %29, ptr %24, align 4, !tbaa !9
  call void @llvm.lifetime.start.p0(i64 4, ptr %25) #7
  store i32 0, ptr %25, align 4, !tbaa !9
  %30 = load ptr, ptr %11, align 8, !tbaa !4
  %31 = load i32, ptr %12, align 4, !tbaa !9
  %32 = load i32, ptr %16, align 4, !tbaa !9
  %33 = and i32 %32, 1
  %34 = icmp ne i32 %33, 0
  %35 = zext i1 %34 to i32
  %36 = icmp ne i32 %35, 0
  %37 = xor i1 %36, true
  %38 = xor i1 %37, true
  %39 = zext i1 %38 to i32
  %40 = sext i32 %39 to i64
  %41 = call i64 @llvm.expect.i64(i64 %40, i64 1)
  %42 = icmp ne i64 %41, 0
  %43 = zext i1 %42 to i32
  %44 = call i32 @test_true(ptr noundef %30, i32 noundef %31, ptr noundef @.str.342, i32 noundef %43)
  %45 = icmp ne i32 %44, 0
  br i1 %45, label %46, label %94

46:                                               ; preds = %10
  %47 = load ptr, ptr %11, align 8, !tbaa !4
  %48 = load i32, ptr %12, align 4, !tbaa !9
  %49 = call ptr @BIO_s_mem()
  %50 = call ptr @BIO_new(ptr noundef %49)
  store ptr %50, ptr %22, align 8, !tbaa !36
  %51 = call i32 @test_ptr(ptr noundef %47, i32 noundef %48, ptr noundef @.str.301, ptr noundef %50)
  %52 = icmp ne i32 %51, 0
  br i1 %52, label %53, label %94

53:                                               ; preds = %46
  %54 = load ptr, ptr %11, align 8, !tbaa !4
  %55 = load i32, ptr %12, align 4, !tbaa !9
  %56 = load ptr, ptr %22, align 8, !tbaa !36
  %57 = load ptr, ptr %21, align 8, !tbaa !23
  %58 = load i32, ptr %24, align 4, !tbaa !9
  %59 = load ptr, ptr %19, align 8, !tbaa !4
  %60 = load ptr, ptr @testctx, align 8, !tbaa !13
  %61 = load ptr, ptr @testpropq, align 8, !tbaa !4
  %62 = call i32 @i2b_PVK_bio_ex(ptr noundef %56, ptr noundef %57, i32 noundef %58, ptr noundef @pass_pw, ptr noundef %59, ptr noundef %60, ptr noundef %61)
  %63 = call i32 @test_int_ge(ptr noundef %54, i32 noundef %55, ptr noundef @.str.343, ptr noundef @.str.298, i32 noundef %62, i32 noundef 0)
  %64 = icmp ne i32 %63, 0
  br i1 %64, label %65, label %94

65:                                               ; preds = %53
  %66 = load ptr, ptr %11, align 8, !tbaa !4
  %67 = load i32, ptr %12, align 4, !tbaa !9
  %68 = load ptr, ptr %22, align 8, !tbaa !36
  %69 = call i64 @BIO_ctrl(ptr noundef %68, i32 noundef 115, i64 noundef 0, ptr noundef %23)
  %70 = icmp sgt i64 %69, 0
  %71 = zext i1 %70 to i32
  %72 = icmp ne i32 %71, 0
  %73 = zext i1 %72 to i32
  %74 = call i32 @test_true(ptr noundef %66, i32 noundef %67, ptr noundef @.str.303, i32 noundef %73)
  %75 = icmp ne i32 %74, 0
  br i1 %75, label %76, label %94

76:                                               ; preds = %65
  %77 = load ptr, ptr %11, align 8, !tbaa !4
  %78 = load i32, ptr %12, align 4, !tbaa !9
  %79 = load ptr, ptr %23, align 8, !tbaa !38
  %80 = getelementptr inbounds nuw %struct.buf_mem_st, ptr %79, i32 0, i32 1
  %81 = load ptr, ptr %80, align 8, !tbaa !40
  %82 = load ptr, ptr %13, align 8, !tbaa !31
  store ptr %81, ptr %82, align 8, !tbaa !31
  %83 = call i32 @test_ptr(ptr noundef %77, i32 noundef %78, ptr noundef @.str.304, ptr noundef %81)
  %84 = icmp ne i32 %83, 0
  br i1 %84, label %85, label %94

85:                                               ; preds = %76
  %86 = load ptr, ptr %11, align 8, !tbaa !4
  %87 = load i32, ptr %12, align 4, !tbaa !9
  %88 = load ptr, ptr %23, align 8, !tbaa !38
  %89 = getelementptr inbounds nuw %struct.buf_mem_st, ptr %88, i32 0, i32 0
  %90 = load i64, ptr %89, align 8, !tbaa !42
  %91 = load ptr, ptr %14, align 8, !tbaa !32
  store i64 %90, ptr %91, align 8, !tbaa !27
  %92 = call i32 @test_long_gt(ptr noundef %86, i32 noundef %87, ptr noundef @.str.305, ptr noundef @.str.298, i64 noundef %90, i64 noundef 0)
  %93 = icmp ne i32 %92, 0
  br i1 %93, label %95, label %94

94:                                               ; preds = %85, %76, %65, %53, %46, %10
  br label %100

95:                                               ; preds = %85
  %96 = load ptr, ptr %23, align 8, !tbaa !38
  %97 = getelementptr inbounds nuw %struct.buf_mem_st, ptr %96, i32 0, i32 1
  store ptr null, ptr %97, align 8, !tbaa !40
  %98 = load ptr, ptr %23, align 8, !tbaa !38
  %99 = getelementptr inbounds nuw %struct.buf_mem_st, ptr %98, i32 0, i32 0
  store i64 0, ptr %99, align 8, !tbaa !42
  store i32 1, ptr %25, align 4, !tbaa !9
  br label %100

100:                                              ; preds = %95, %94
  %101 = load ptr, ptr %22, align 8, !tbaa !36
  %102 = call i32 @BIO_free(ptr noundef %101)
  %103 = load i32, ptr %25, align 4, !tbaa !9
  call void @llvm.lifetime.end.p0(i64 4, ptr %25) #7
  call void @llvm.lifetime.end.p0(i64 4, ptr %24) #7
  call void @llvm.lifetime.end.p0(i64 8, ptr %23) #7
  call void @llvm.lifetime.end.p0(i64 8, ptr %22) #7
  call void @llvm.lifetime.end.p0(i64 8, ptr %21) #7
  ret i32 %103
}