; Function Attrs: nounwind uwtable
define internal range(i32 0, 2) i32 @encode_EVP_PKEY_PVK(ptr noundef %0, i32 noundef %1, ptr noundef writeonly captures(none) %2, ptr noundef writeonly captures(none) %3, ptr noundef %4, i32 noundef %5, ptr readnone captures(none) %6, ptr readnone captures(none) %7, ptr noundef %8, ptr readnone captures(none) %9) #1 {
  %11 = alloca ptr, align 8
  call void @llvm.lifetime.start.p0(i64 8, ptr nonnull %11) #8
  store ptr null, ptr %11, align 8, !tbaa !29
  %12 = icmp ne ptr %8, null
  %13 = zext i1 %12 to i32
  %14 = and i32 %5, 1
  %15 = tail call i32 @test_true(ptr noundef %0, i32 noundef %1, ptr noundef nonnull @.str.342, i32 noundef %14) #8
  %.not = icmp eq i32 %15, 0
  br i1 %.not, label %40, label %16

16:                                               ; preds = %10
  %17 = tail call ptr @BIO_s_mem() #8
  %18 = tail call ptr @BIO_new(ptr noundef %17) #8
  %19 = tail call i32 @test_ptr(ptr noundef %0, i32 noundef %1, ptr noundef nonnull @.str.301, ptr noundef %18) #8
  %.not24 = icmp eq i32 %19, 0
  br i1 %.not24, label %40, label %20

20:                                               ; preds = %16
  %21 = load ptr, ptr @testctx, align 8, !tbaa !10
  %22 = tail call i32 @i2b_PVK_bio_ex(ptr noundef %18, ptr noundef %4, i32 noundef %13, ptr noundef nonnull @pass_pw, ptr noundef %8, ptr noundef %21, ptr noundef null) #8
  %23 = tail call i32 @test_int_ge(ptr noundef %0, i32 noundef %1, ptr noundef nonnull @.str.343, ptr noundef nonnull @.str.298, i32 noundef %22, i32 noundef 0) #8
  %.not25 = icmp eq i32 %23, 0
  br i1 %.not25, label %40, label %24

24:                                               ; preds = %20
  %25 = call i64 @BIO_ctrl(ptr noundef %18, i32 noundef 115, i64 noundef 0, ptr noundef nonnull %11) #8
  %26 = icmp sgt i64 %25, 0
  %27 = zext i1 %26 to i32
  %28 = call i32 @test_true(ptr noundef %0, i32 noundef %1, ptr noundef nonnull @.str.303, i32 noundef %27) #8
  %.not26 = icmp eq i32 %28, 0
  br i1 %.not26, label %40, label %29

29:                                               ; preds = %24
  %30 = load ptr, ptr %11, align 8, !tbaa !29
  %31 = getelementptr inbounds nuw i8, ptr %30, i64 8
  %32 = load ptr, ptr %31, align 8, !tbaa !31
  store ptr %32, ptr %2, align 8, !tbaa !23
  %33 = call i32 @test_ptr(ptr noundef %0, i32 noundef %1, ptr noundef nonnull @.str.304, ptr noundef %32) #8
  %.not27 = icmp eq i32 %33, 0
  br i1 %.not27, label %40, label %34

34:                                               ; preds = %29
  %35 = load ptr, ptr %11, align 8, !tbaa !29
  %36 = load i64, ptr %35, align 8, !tbaa !34
  store i64 %36, ptr %3, align 8, !tbaa !24
  %37 = call i32 @test_long_gt(ptr noundef %0, i32 noundef %1, ptr noundef nonnull @.str.305, ptr noundef nonnull @.str.298, i64 noundef %36, i64 noundef 0) #8
  %.not28 = icmp eq i32 %37, 0
  br i1 %.not28, label %40, label %38

38:                                               ; preds = %34
  %39 = load ptr, ptr %11, align 8, !tbaa !29
  call void @llvm.memset.p0.i64(ptr noundef nonnull align 8 dereferenceable(16) %39, i8 0, i64 16, i1 false)
  br label %40

40:                                               ; preds = %10, %16, %20, %24, %29, %34, %38
  %.023 = phi ptr [ %18, %38 ], [ %18, %34 ], [ %18, %29 ], [ %18, %24 ], [ %18, %20 ], [ %18, %16 ], [ null, %10 ]
  %.0 = phi i32 [ 1, %38 ], [ 0, %34 ], [ 0, %29 ], [ 0, %24 ], [ 0, %20 ], [ 0, %16 ], [ 0, %10 ]
  %41 = call i32 @BIO_free(ptr noundef %.023) #8
  call void @llvm.lifetime.end.p0(i64 8, ptr nonnull %11) #8
  ret i32 %.0
}